; Function Attrs: mustprogress uwtable
define hidden noundef zeroext i1 @_ZN7nanogui6Screen24keyboard_character_eventEj(ptr nocapture noundef nonnull readonly align 8 dereferenceable(384) %0, i32 noundef %1) unnamed_addr #3 align 2 {
  %3 = getelementptr inbounds i8, ptr %0, i64 216
  %4 = getelementptr inbounds i8, ptr %0, i64 224
  %5 = load ptr, ptr %4, align 8
  %6 = load ptr, ptr %3, align 8
  %.not = icmp eq ptr %5, %6
  %7 = getelementptr inbounds i8, ptr %5, i64 -8
  %.not57 = icmp eq ptr %7, %6
  %or.cond = select i1 %.not, i1 true, i1 %.not57
  br i1 %or.cond, label %.loopexit, label %.lr.ph

.lr.ph:                                           ; preds = %2, %19
  %8 = phi ptr [ %20, %19 ], [ %6, %2 ]
  %.sroa.03.08 = phi ptr [ %9, %19 ], [ %7, %2 ]
  %9 = getelementptr inbounds i8, ptr %.sroa.03.08, i64 -8
  %10 = load ptr, ptr %9, align 8
  %11 = getelementptr inbounds i8, ptr %10, i64 90
  %12 = load i8, ptr %11, align 2
  %13 = and i8 %12, 1
  %.not6 = icmp eq i8 %13, 0
  br i1 %.not6, label %19, label %14

14:                                               ; preds = %.lr.ph
  %15 = load ptr, ptr %10, align 8
  %16 = getelementptr inbounds i8, ptr %15, i64 88
  %17 = load ptr, ptr %16, align 8
  %18 = tail call noundef zeroext i1 %17(ptr noundef nonnull align 8 dereferenceable(140) %10, i32 noundef %1)
  br i1 %18, label %.loopexit, label %._crit_edge

._crit_edge:                                      ; preds = %14
  %.pre = load ptr, ptr %3, align 8, !noalias !35
  br label %19

19:                                               ; preds = %._crit_edge, %.lr.ph
  %20 = phi ptr [ %.pre, %._crit_edge ], [ %8, %.lr.ph ]
  %.not5 = icmp eq ptr %9, %20
  br i1 %.not5, label %.loopexit, label %.lr.ph, !llvm.loop !38

.loopexit:                                        ; preds = %14, %19, %2
  %.0 = phi i1 [ false, %2 ], [ true, %14 ], [ false, %19 ]
  ret i1 %.0
}